target datalayout = "e-m:e-p270:32:32-p271:32:32-p272:64:64-i64:64-i128:128-f80:128-n8:16:32:64-S128"
target triple = "x86_64-pc-linux-gnu"

%"class.icu_77::CollationRootElements" = type <{ ptr, i32, [4 x i8] }>

; Function Attrs: mustprogress nounwind uwtable
define noundef i32 @_ZNK6icu_7721CollationRootElements24getFirstSecTerForPrimaryEi(ptr noundef nonnull align 8 dereferenceable(12) %0, i32 noundef %1) #2 align 2 {
  %3 = alloca i32, align 4
  %4 = alloca ptr, align 8
  %5 = alloca i32, align 4
  %6 = alloca i32, align 4
  %7 = alloca i32, align 4
  store ptr %0, ptr %4, align 8, !tbaa !3
  store i32 %1, ptr %5, align 4, !tbaa !8
  %8 = load ptr, ptr %4, align 8
  call void @llvm.lifetime.start.p0(i64 4, ptr %6) #4
  %9 = getelementptr inbounds nuw %"class.icu_77::CollationRootElements", ptr %8, i32 0, i32 0
  %10 = load ptr, ptr %9, align 8, !tbaa !10
  %11 = load i32, ptr %5, align 4, !tbaa !8
  %12 = sext i32 %11 to i64
  %13 = getelementptr inbounds i32, ptr %10, i64 %12
  %14 = load i32, ptr %13, align 4, !tbaa !8
  store i32 %14, ptr %6, align 4, !tbaa !8
  %15 = load i32, ptr %6, align 4, !tbaa !8
  %16 = and i32 %15, 128
  %17 = icmp eq i32 %16, 0
  br i1 %17, label %18, label %19

18:                                               ; preds = %2
  store i32 83887360, ptr %3, align 4
  store i32 1, ptr %7, align 4
  br label %27

19:                                               ; preds = %2
  %20 = load i32, ptr %6, align 4, !tbaa !8
  %21 = and i32 %20, -129
  store i32 %21, ptr %6, align 4, !tbaa !8
  %22 = load i32, ptr %6, align 4, !tbaa !8
  %23 = icmp ugt i32 %22, 83887360
  br i1 %23, label %24, label %25

24:                                               ; preds = %19
  store i32 83887360, ptr %3, align 4
  store i32 1, ptr %7, align 4
  br label %27

25:                                               ; preds = %19
  %26 = load i32, ptr %6, align 4, !tbaa !8
  store i32 %26, ptr %3, align 4
  store i32 1, ptr %7, align 4
  br label %27

27:                                               ; preds = %25, %24, %18
  call void @llvm.lifetime.end.p0(i64 4, ptr %6) #4
  %28 = load i32, ptr %3, align 4
  ret i32 %28
}

; Function Attrs: mustprogress nounwind uwtable
define linkonce_odr noundef i32 @_ZNK6icu_7721CollationRootElements19getTertiaryBoundaryEv(ptr noundef nonnull align 8 dereferenceable(12) %0) #2 comdat align 2 {
  %2 = alloca ptr, align 8
  store ptr %0, ptr %2, align 8, !tbaa !3
  %3 = load ptr, ptr %2, align 8
  %4 = getelementptr inbounds nuw %"class.icu_77::CollationRootElements", ptr %3, i32 0, i32 0
  %5 = load ptr, ptr %4, align 8, !tbaa !10
  %6 = getelementptr inbounds nuw i32, ptr %5, i64 4
  %7 = load i32, ptr %6, align 4, !tbaa !8
  %8 = shl i32 %7, 8
  %9 = and i32 %8, 65280
  ret i32 %9
}

; Function Attrs: mustprogress uwtable
define noundef i32 @_ZNK6icu_7721CollationRootElements16getTertiaryAfterEijj(ptr noundef nonnull align 8 dereferenceable(12) %0, i32 noundef %1, i32 noundef %2, i32 noundef %3) #0 align 2 {
  %5 = alloca i32, align 4
  %6 = alloca ptr, align 8
  %7 = alloca i32, align 4
  %8 = alloca i32, align 4
  %9 = alloca i32, align 4
  %10 = alloca i32, align 4
  %11 = alloca i32, align 4
  %12 = alloca i32, align 4
  %13 = alloca i32, align 4
  store ptr %0, ptr %6, align 8, !tbaa !3
  store i32 %1, ptr %7, align 4, !tbaa !8
  store i32 %2, ptr %8, align 4, !tbaa !8
  store i32 %3, ptr %9, align 4, !tbaa !8
  %14 = load ptr, ptr %6, align 8
  call void @llvm.lifetime.start.p0(i64 4, ptr %10) #4
  call void @llvm.lifetime.start.p0(i64 4, ptr %11) #4
  %15 = load i32, ptr %7, align 4, !tbaa !8
  %16 = icmp eq i32 %15, 0
  br i1 %16, label %17, label %39

17:                                               ; preds = %4
  %18 = load i32, ptr %8, align 4, !tbaa !8
  %19 = icmp eq i32 %18, 0
  br i1 %19, label %20, label %25

20:                                               ; preds = %17
  %21 = getelementptr inbounds nuw %"class.icu_77::CollationRootElements", ptr %14, i32 0, i32 0
  %22 = load ptr, ptr %21, align 8, !tbaa !10
  %23 = getelementptr inbounds nuw i32, ptr %22, i64 0
  %24 = load i32, ptr %23, align 4, !tbaa !8
  store i32 %24, ptr %7, align 4, !tbaa !8
  store i32 16384, ptr %11, align 4, !tbaa !8
  br label %31

25:                                               ; preds = %17
  %26 = getelementptr inbounds nuw %"class.icu_77::CollationRootElements", ptr %14, i32 0, i32 0
  %27 = load ptr, ptr %26, align 8, !tbaa !10
  %28 = getelementptr inbounds nuw i32, ptr %27, i64 1
  %29 = load i32, ptr %28, align 4, !tbaa !8
  store i32 %29, ptr %7, align 4, !tbaa !8
  %30 = call noundef i32 @_ZNK6icu_7721CollationRootElements19getTertiaryBoundaryEv(ptr noundef nonnull align 8 dereferenceable(12) %14)
  store i32 %30, ptr %11, align 4, !tbaa !8
  br label %31

31:                                               ; preds = %25, %20
  %32 = getelementptr inbounds nuw %"class.icu_77::CollationRootElements", ptr %14, i32 0, i32 0
  %33 = load ptr, ptr %32, align 8, !tbaa !10
  %34 = load i32, ptr %7, align 4, !tbaa !8
  %35 = sext i32 %34 to i64
  %36 = getelementptr inbounds i32, ptr %33, i64 %35
  %37 = load i32, ptr %36, align 4, !tbaa !8
  %38 = and i32 %37, -129
  store i32 %38, ptr %10, align 4, !tbaa !8
  br label %44

39:                                               ; preds = %4
  %40 = load i32, ptr %7, align 4, !tbaa !8
  %41 = add nsw i32 %40, 1
  %42 = call noundef i32 @_ZNK6icu_7721CollationRootElements24getFirstSecTerForPrimaryEi(ptr noundef nonnull align 8 dereferenceable(12) %14, i32 noundef %41)
  store i32 %42, ptr %10, align 4, !tbaa !8
  %43 = call noundef i32 @_ZNK6icu_7721CollationRootElements19getTertiaryBoundaryEv(ptr noundef nonnull align 8 dereferenceable(12) %14)
  store i32 %43, ptr %11, align 4, !tbaa !8
  br label %44

44:                                               ; preds = %39, %31
  call void @llvm.lifetime.start.p0(i64 4, ptr %12) #4
  %45 = load i32, ptr %8, align 4, !tbaa !8
  %46 = shl i32 %45, 16
  %47 = load i32, ptr %9, align 4, !tbaa !8
  %48 = or i32 %46, %47
  store i32 %48, ptr %12, align 4, !tbaa !8
  br label %49

49:                                               ; preds = %74, %44
  %50 = load i32, ptr %10, align 4, !tbaa !8
  %51 = load i32, ptr %12, align 4, !tbaa !8
  %52 = icmp ugt i32 %50, %51
  br i1 %52, label %53, label %56

53:                                               ; preds = %49
  %54 = load i32, ptr %10, align 4, !tbaa !8
  %55 = and i32 %54, 65535
  store i32 %55, ptr %5, align 4
  store i32 1, ptr %13, align 4
  br label %77

56:                                               ; preds = %49
  %57 = getelementptr inbounds nuw %"class.icu_77::CollationRootElements", ptr %14, i32 0, i32 0
  %58 = load ptr, ptr %57, align 8, !tbaa !10
  %59 = load i32, ptr %7, align 4, !tbaa !8
  %60 = add nsw i32 %59, 1
  store i32 %60, ptr %7, align 4, !tbaa !8
  %61 = sext i32 %60 to i64
  %62 = getelementptr inbounds i32, ptr %58, i64 %61
  %63 = load i32, ptr %62, align 4, !tbaa !8
  store i32 %63, ptr %10, align 4, !tbaa !8
  %64 = load i32, ptr %10, align 4, !tbaa !8
  %65 = and i32 %64, 128
  %66 = icmp eq i32 %65, 0
  br i1 %66, label %72, label %67

67:                                               ; preds = %56
  %68 = load i32, ptr %10, align 4, !tbaa !8
  %69 = lshr i32 %68, 16
  %70 = load i32, ptr %8, align 4, !tbaa !8
  %71 = icmp ugt i32 %69, %70
  br i1 %71, label %72, label %74

72:                                               ; preds = %67, %56
  %73 = load i32, ptr %11, align 4, !tbaa !8
  store i32 %73, ptr %5, align 4
  store i32 1, ptr %13, align 4
  br label %77

74:                                               ; preds = %67
  %75 = load i32, ptr %10, align 4, !tbaa !8
  %76 = and i32 %75, -129
  store i32 %76, ptr %10, align 4, !tbaa !8
  br label %49, !llvm.loop !27

77:                                               ; preds = %72, %53
  call void @llvm.lifetime.end.p0(i64 4, ptr %12) #4
  call void @llvm.lifetime.end.p0(i64 4, ptr %11) #4
  call void @llvm.lifetime.end.p0(i64 4, ptr %10) #4
  %78 = load i32, ptr %5, align 4
  ret i32 %78
}