; Function Attrs: mustprogress nofree norecurse nosync nounwind willreturn memory(read, inaccessiblemem: none) uwtable
define noundef range(i32 0, 65536) i32 @_ZNK6icu_7721CollationRootElements16getTertiaryAfterEijj(ptr noundef nonnull readonly align 8 captures(none) dereferenceable(12) %0, i32 noundef %1, i32 noundef %2, i32 noundef %3) local_unnamed_addr #0 align 2 {
  %5 = icmp eq i32 %1, 0
  br i1 %5, label %6, label %20

6:                                                ; preds = %4
  %7 = icmp eq i32 %2, 0
  %8 = load ptr, ptr %0, align 8, !tbaa !3
  br i1 %7, label %15, label %9

9:                                                ; preds = %6
  %10 = getelementptr inbounds nuw i8, ptr %8, i64 4
  %11 = getelementptr inbounds nuw i8, ptr %8, i64 16
  %12 = load i32, ptr %11, align 4, !tbaa !10
  %13 = shl i32 %12, 8
  %14 = and i32 %13, 65280
  br label %15

15:                                               ; preds = %6, %9
  %.019.in = phi ptr [ %10, %9 ], [ %8, %6 ]
  %.016 = phi i32 [ %14, %9 ], [ 16384, %6 ]
  %.019 = load i32, ptr %.019.in, align 4, !tbaa !10
  %16 = sext i32 %.019 to i64
  %17 = getelementptr inbounds i32, ptr %8, i64 %16
  %18 = load i32, ptr %17, align 4, !tbaa !10
  %19 = and i32 %18, -129
  br label %33

20:                                               ; preds = %4
  %21 = load ptr, ptr %0, align 8, !tbaa !3
  %22 = sext i32 %1 to i64
  %23 = getelementptr i32, ptr %21, i64 %22
  %24 = getelementptr i8, ptr %23, i64 4
  %25 = load i32, ptr %24, align 4, !tbaa !10
  %26 = and i32 %25, 128
  %27 = icmp eq i32 %26, 0
  %28 = and i32 %25, -129
  %..i = tail call i32 @llvm.umin.i32(i32 %28, i32 83887360)
  %.0.i = select i1 %27, i32 83887360, i32 %..i
  %29 = getelementptr inbounds nuw i8, ptr %21, i64 16
  %30 = load i32, ptr %29, align 4, !tbaa !10
  %31 = shl i32 %30, 8
  %32 = and i32 %31, 65280
  br label %33

33:                                               ; preds = %20, %15
  %34 = phi ptr [ %8, %15 ], [ %21, %20 ]
  %.120 = phi i32 [ %.019, %15 ], [ %1, %20 ]
  %.017 = phi i32 [ %19, %15 ], [ %.0.i, %20 ]
  %.1 = phi i32 [ %.016, %15 ], [ %32, %20 ]
  %35 = shl i32 %2, 16
  %36 = or i32 %35, %3
  %37 = icmp ugt i32 %.017, %36
  br i1 %37, label %._crit_edge, label %.lr.ph

.lr.ph:                                           ; preds = %33
  %38 = sext i32 %.120 to i64
  br label %43

39:                                               ; preds = %43
  %40 = and i32 %45, -129
  %41 = icmp ugt i32 %40, %36
  br i1 %41, label %._crit_edge, label %43, !llvm.loop !23

._crit_edge:                                      ; preds = %39, %33
  %.118.lcssa = phi i32 [ %.017, %33 ], [ %40, %39 ]
  %42 = and i32 %.118.lcssa, 65535
  br label %.loopexit

43:                                               ; preds = %.lr.ph, %39
  %indvars.iv = phi i64 [ %38, %.lr.ph ], [ %indvars.iv.next, %39 ]
  %indvars.iv.next = add nsw i64 %indvars.iv, 1
  %44 = getelementptr inbounds i32, ptr %34, i64 %indvars.iv.next
  %45 = load i32, ptr %44, align 4, !tbaa !10
  %46 = and i32 %45, 128
  %47 = icmp eq i32 %46, 0
  %48 = lshr i32 %45, 16
  %49 = icmp ugt i32 %48, %2
  %or.cond = or i1 %47, %49
  br i1 %or.cond, label %.loopexit, label %39

.loopexit:                                        ; preds = %43, %._crit_edge
  %.0 = phi i32 [ %42, %._crit_edge ], [ %.1, %43 ]
  ret i32 %.0
}